target datalayout = "e-m:e-p270:32:32-p271:32:32-p272:64:64-i64:64-i128:128-f80:128-n8:16:32:64-S128"
target triple = "x86_64-pc-linux-gnu"

%struct.EDGE = type { ptr, ptr, ptr, i32, i32 }

@MaxBackends = external global i32, align 4
@maxCurConstraints = internal global i32 0, align 4
@curConstraints = internal global ptr null, align 8
@maxPossibleConstraints = internal global i32 0, align 4
@possibleConstraints = internal global ptr null, align 8
@nCurConstraints = internal global i32 0, align 4
@nPossibleConstraints = internal global i32 0, align 4
@.str.1 = private unnamed_addr constant [11 x i8] c"deadlock.c\00", align 1
@.str.7 = private unnamed_addr constant [43 x i8] c"inconsistent results during deadlock check\00", align 1
@__func__.DeadLockCheckRecurse = private unnamed_addr constant [21 x i8] c"DeadLockCheckRecurse\00", align 1

; Function Attrs: nounwind uwtable
define internal zeroext i1 @DeadLockCheckRecurse(ptr noundef %0) #0 {
  %2 = alloca i1, align 1
  %3 = alloca ptr, align 8
  %4 = alloca i32, align 4
  %5 = alloca i32, align 4
  %6 = alloca i8, align 1
  %7 = alloca i32, align 4
  %8 = alloca i32, align 4
  store ptr %0, ptr %3, align 8
  call void @llvm.lifetime.start.p0(i64 4, ptr %4) #8
  call void @llvm.lifetime.start.p0(i64 4, ptr %5) #8
  call void @llvm.lifetime.start.p0(i64 1, ptr %6) #8
  call void @llvm.lifetime.start.p0(i64 4, ptr %7) #8
  %9 = load ptr, ptr %3, align 8
  %10 = call i32 @TestConfiguration(ptr noundef %9)
  store i32 %10, ptr %4, align 4
  %11 = load i32, ptr %4, align 4
  %12 = icmp slt i32 %11, 0
  br i1 %12, label %13, label %14

13:                                               ; preds = %1
  store i1 true, ptr %2, align 1
  store i32 1, ptr %8, align 4
  br label %89

14:                                               ; preds = %1
  %15 = load i32, ptr %4, align 4
  %16 = icmp eq i32 %15, 0
  br i1 %16, label %17, label %18

17:                                               ; preds = %14
  store i1 false, ptr %2, align 1
  store i32 1, ptr %8, align 4
  br label %89

18:                                               ; preds = %14
  %19 = load i32, ptr @nCurConstraints, align 4
  %20 = load i32, ptr @maxCurConstraints, align 4
  %21 = icmp sge i32 %19, %20
  br i1 %21, label %22, label %23

22:                                               ; preds = %18
  store i1 true, ptr %2, align 1
  store i32 1, ptr %8, align 4
  br label %89

23:                                               ; preds = %18
  %24 = load i32, ptr @nPossibleConstraints, align 4
  store i32 %24, ptr %5, align 4
  %25 = load i32, ptr @nPossibleConstraints, align 4
  %26 = load i32, ptr %4, align 4
  %27 = add i32 %25, %26
  %28 = load i32, ptr @MaxBackends, align 4
  %29 = add i32 %27, %28
  %30 = load i32, ptr @maxPossibleConstraints, align 4
  %31 = icmp sle i32 %29, %30
  br i1 %31, label %32, label %36

32:                                               ; preds = %23
  %33 = load i32, ptr %4, align 4
  %34 = load i32, ptr @nPossibleConstraints, align 4
  %35 = add i32 %34, %33
  store i32 %35, ptr @nPossibleConstraints, align 4
  store i8 1, ptr %6, align 1
  br label %37

36:                                               ; preds = %23
  store i8 0, ptr %6, align 1
  br label %37

37:                                               ; preds = %36, %32
  store i32 0, ptr %7, align 4
  br label %38

38:                                               ; preds = %84, %37
  %39 = load i32, ptr %7, align 4
  %40 = load i32, ptr %4, align 4
  %41 = icmp slt i32 %39, %40
  br i1 %41, label %42, label %87

42:                                               ; preds = %38
  %43 = load i8, ptr %6, align 1, !range !7, !noundef !8
  %44 = trunc i8 %43 to i1
  br i1 %44, label %65, label %45

45:                                               ; preds = %42
  %46 = load i32, ptr %7, align 4
  %47 = icmp sgt i32 %46, 0
  br i1 %47, label %48, label %65

48:                                               ; preds = %45
  %49 = load i32, ptr %4, align 4
  %50 = load ptr, ptr %3, align 8
  %51 = call i32 @TestConfiguration(ptr noundef %50)
  %52 = icmp ne i32 %49, %51
  br i1 %52, label %53, label %64

53:                                               ; preds = %48
  br label %54

54:                                               ; preds = %53
  br i1 true, label %55, label %57

55:                                               ; preds = %54
  %56 = call zeroext i1 @errstart_cold(i32 noundef 22, ptr noundef null) #9
  br i1 %56, label %59, label %61

57:                                               ; preds = %54
  %58 = call zeroext i1 @errstart(i32 noundef 22, ptr noundef null)
  br i1 %58, label %59, label %61

59:                                               ; preds = %57, %55
  %60 = call i32 (ptr, ...) @errmsg_internal(ptr noundef @.str.7)
  call void @errfinish(ptr noundef @.str.1, i32 noundef 345, ptr noundef @__func__.DeadLockCheckRecurse)
  br label %61

61:                                               ; preds = %59, %57, %55
  unreachable

62:                                               ; No predecessors!
  br label %63

63:                                               ; preds = %62
  br label %64

64:                                               ; preds = %63, %48
  br label %65

65:                                               ; preds = %64, %45, %42
  %66 = load ptr, ptr @curConstraints, align 8
  %67 = load i32, ptr @nCurConstraints, align 4
  %68 = sext i32 %67 to i64
  %69 = getelementptr inbounds %struct.EDGE, ptr %66, i64 %68
  %70 = load ptr, ptr @possibleConstraints, align 8
  %71 = load i32, ptr %5, align 4
  %72 = load i32, ptr %7, align 4
  %73 = add i32 %71, %72
  %74 = sext i32 %73 to i64
  %75 = getelementptr inbounds %struct.EDGE, ptr %70, i64 %74
  call void @llvm.memcpy.p0.p0.i64(ptr align 8 %69, ptr align 8 %75, i64 32, i1 false)
  %76 = load i32, ptr @nCurConstraints, align 4
  %77 = add i32 %76, 1
  store i32 %77, ptr @nCurConstraints, align 4
  %78 = load ptr, ptr %3, align 8
  %79 = call zeroext i1 @DeadLockCheckRecurse(ptr noundef %78)
  br i1 %79, label %81, label %80

80:                                               ; preds = %65
  store i1 false, ptr %2, align 1
  store i32 1, ptr %8, align 4
  br label %89

81:                                               ; preds = %65
  %82 = load i32, ptr @nCurConstraints, align 4
  %83 = add i32 %82, -1
  store i32 %83, ptr @nCurConstraints, align 4
  br label %84

84:                                               ; preds = %81
  %85 = load i32, ptr %7, align 4
  %86 = add i32 %85, 1
  store i32 %86, ptr %7, align 4
  br label %38, !llvm.loop !9

87:                                               ; preds = %38
  %88 = load i32, ptr %5, align 4
  store i32 %88, ptr @nPossibleConstraints, align 4
  store i1 true, ptr %2, align 1
  store i32 1, ptr %8, align 4
  br label %89

89:                                               ; preds = %87, %80, %22, %17, %13
  call void @llvm.lifetime.end.p0(i64 4, ptr %7) #8
  call void @llvm.lifetime.end.p0(i64 1, ptr %6) #8
  call void @llvm.lifetime.end.p0(i64 4, ptr %5) #8
  call void @llvm.lifetime.end.p0(i64 4, ptr %4) #8
  %90 = load i1, ptr %2, align 1
  ret i1 %90
}