; Function Attrs: nounwind uwtable
define internal fastcc noundef zeroext i1 @DeadLockCheckRecurse(ptr noundef %0) unnamed_addr #0 {
  %2 = tail call fastcc i32 @TestConfiguration(ptr noundef %0)
  %3 = icmp slt i32 %2, 0
  br i1 %3, label %.loopexit, label %4

4:                                                ; preds = %1
  %5 = icmp eq i32 %2, 0
  br i1 %5, label %.loopexit, label %6

6:                                                ; preds = %4
  %7 = load i32, ptr @nCurConstraints, align 4
  %8 = load i32, ptr @maxCurConstraints, align 4
  %.not20 = icmp slt i32 %7, %8
  br i1 %.not20, label %9, label %.loopexit

9:                                                ; preds = %6
  %10 = load i32, ptr @nPossibleConstraints, align 4
  %11 = add i32 %10, %2
  %12 = load i32, ptr @MaxBackends, align 4
  %13 = add i32 %11, %12
  %14 = load i32, ptr @maxPossibleConstraints, align 4
  %.not21.not = icmp sgt i32 %13, %14
  br i1 %.not21.not, label %.lr.ph.split.preheader, label %.lr.ph.split.us.preheader

.lr.ph.split.us.preheader:                        ; preds = %9
  store i32 %11, ptr @nPossibleConstraints, align 4
  %wide.trip.count = zext nneg i32 %2 to i64
  br label %.lr.ph.split.us

.lr.ph.split.preheader:                           ; preds = %9
  %wide.trip.count31 = zext nneg i32 %2 to i64
  br label %.lr.ph.split

.lr.ph.split.us:                                  ; preds = %.lr.ph.split.us.preheader, %26
  %15 = phi i32 [ %7, %.lr.ph.split.us.preheader ], [ %28, %26 ]
  %indvars.iv = phi i64 [ 0, %.lr.ph.split.us.preheader ], [ %indvars.iv.next, %26 ]
  %16 = load ptr, ptr @curConstraints, align 8
  %17 = sext i32 %15 to i64
  %18 = getelementptr inbounds %struct.EDGE, ptr %16, i64 %17
  %19 = load ptr, ptr @possibleConstraints, align 8
  %20 = trunc nuw nsw i64 %indvars.iv to i32
  %21 = add i32 %10, %20
  %22 = sext i32 %21 to i64
  %23 = getelementptr inbounds %struct.EDGE, ptr %19, i64 %22
  tail call void @llvm.memcpy.p0.p0.i64(ptr noundef nonnull align 8 dereferenceable(32) %18, ptr noundef nonnull align 8 dereferenceable(32) %23, i64 32, i1 false)
  %24 = add i32 %15, 1
  store i32 %24, ptr @nCurConstraints, align 4
  %25 = tail call fastcc zeroext i1 @DeadLockCheckRecurse(ptr noundef %0)
  br i1 %25, label %26, label %.loopexit

26:                                               ; preds = %.lr.ph.split.us
  %27 = load i32, ptr @nCurConstraints, align 4
  %28 = add i32 %27, -1
  store i32 %28, ptr @nCurConstraints, align 4
  %indvars.iv.next = add nuw nsw i64 %indvars.iv, 1
  %exitcond.not = icmp eq i64 %indvars.iv.next, %wide.trip.count
  br i1 %exitcond.not, label %._crit_edge, label %.lr.ph.split.us, !llvm.loop !7

.lr.ph.split:                                     ; preds = %.lr.ph.split.preheader, %47
  %29 = phi i32 [ %7, %.lr.ph.split.preheader ], [ %49, %47 ]
  %indvars.iv27 = phi i64 [ 0, %.lr.ph.split.preheader ], [ %indvars.iv.next28, %47 ]
  %.not23 = icmp eq i64 %indvars.iv27, 0
  br i1 %.not23, label %35, label %30

30:                                               ; preds = %.lr.ph.split
  %31 = tail call fastcc i32 @TestConfiguration(ptr noundef %0)
  %.not = icmp eq i32 %2, %31
  br i1 %.not, label %._crit_edge33, label %32

._crit_edge33:                                    ; preds = %30
  %.pre = load i32, ptr @nCurConstraints, align 4
  br label %35

32:                                               ; preds = %30
  %33 = tail call zeroext i1 @errstart_cold(i32 noundef 22, ptr noundef null) #12
  tail call void @llvm.assume(i1 %33)
  %34 = tail call i32 (ptr, ...) @errmsg_internal(ptr noundef nonnull @.str.7) #11
  tail call void @errfinish(ptr noundef nonnull @.str.1, i32 noundef 345, ptr noundef nonnull @__func__.DeadLockCheckRecurse) #11
  unreachable

35:                                               ; preds = %._crit_edge33, %.lr.ph.split
  %36 = phi i32 [ %.pre, %._crit_edge33 ], [ %29, %.lr.ph.split ]
  %37 = load ptr, ptr @curConstraints, align 8
  %38 = sext i32 %36 to i64
  %39 = getelementptr inbounds %struct.EDGE, ptr %37, i64 %38
  %40 = load ptr, ptr @possibleConstraints, align 8
  %41 = trunc nuw nsw i64 %indvars.iv27 to i32
  %42 = add i32 %10, %41
  %43 = sext i32 %42 to i64
  %44 = getelementptr inbounds %struct.EDGE, ptr %40, i64 %43
  tail call void @llvm.memcpy.p0.p0.i64(ptr noundef nonnull align 8 dereferenceable(32) %39, ptr noundef nonnull align 8 dereferenceable(32) %44, i64 32, i1 false)
  %45 = add i32 %36, 1
  store i32 %45, ptr @nCurConstraints, align 4
  %46 = tail call fastcc zeroext i1 @DeadLockCheckRecurse(ptr noundef %0)
  br i1 %46, label %47, label %.loopexit

47:                                               ; preds = %35
  %48 = load i32, ptr @nCurConstraints, align 4
  %49 = add i32 %48, -1
  store i32 %49, ptr @nCurConstraints, align 4
  %indvars.iv.next28 = add nuw nsw i64 %indvars.iv27, 1
  %exitcond32.not = icmp eq i64 %indvars.iv.next28, %wide.trip.count31
  br i1 %exitcond32.not, label %._crit_edge, label %.lr.ph.split, !llvm.loop !7

._crit_edge:                                      ; preds = %26, %47
  store i32 %10, ptr @nPossibleConstraints, align 4
  br label %.loopexit

.loopexit:                                        ; preds = %.lr.ph.split.us, %35, %6, %4, %1, %._crit_edge
  %.018 = phi i1 [ true, %._crit_edge ], [ true, %1 ], [ false, %4 ], [ true, %6 ], [ false, %35 ], [ false, %.lr.ph.split.us ]
  ret i1 %.018
}